target datalayout = "e-m:e-p270:32:32-p271:32:32-p272:64:64-i64:64-i128:128-f80:128-n8:16:32:64-S128"
target triple = "x86_64-pc-linux-gnu"

@.str.3 = private unnamed_addr constant [2 x i8] c"\0A\00", align 1
@.str.4 = private unnamed_addr constant [36 x i8] c"    fsm_expand [-full] [selection]\0A\00", align 1
@.str.5 = private unnamed_addr constant [78 x i8] c"The fsm_extract pass is conservative about the cells that belong to a finite\0A\00", align 1
@.str.6 = private unnamed_addr constant [79 x i8] c"state machine. This pass can be used to merge additional auxiliary gates into\0A\00", align 1
@.str.7 = private unnamed_addr constant [27 x i8] c"the finite state machine.\0A\00", align 1
@.str.8 = private unnamed_addr constant [77 x i8] c"By default, fsm_expand is still a bit conservative regarding merging larger\0A\00", align 1
@.str.9 = private unnamed_addr constant [69 x i8] c"word-wide cells. Call with -full to consider all cells for merging.\0A\00", align 1

; Function Attrs: mustprogress uwtable
define internal void @_ZN12_GLOBAL__N_113FsmExpandPass4helpEv(ptr noundef nonnull align 8 dereferenceable(104) %0) unnamed_addr #4 align 2 {
  %2 = alloca ptr, align 8
  store ptr %0, ptr %2, align 8
  call void (ptr, ...) @_ZN5Yosys3logEPKcz(ptr noundef @.str.3)
  call void (ptr, ...) @_ZN5Yosys3logEPKcz(ptr noundef @.str.4)
  call void (ptr, ...) @_ZN5Yosys3logEPKcz(ptr noundef @.str.3)
  call void (ptr, ...) @_ZN5Yosys3logEPKcz(ptr noundef @.str.5)
  call void (ptr, ...) @_ZN5Yosys3logEPKcz(ptr noundef @.str.6)
  call void (ptr, ...) @_ZN5Yosys3logEPKcz(ptr noundef @.str.7)
  call void (ptr, ...) @_ZN5Yosys3logEPKcz(ptr noundef @.str.3)
  call void (ptr, ...) @_ZN5Yosys3logEPKcz(ptr noundef @.str.8)
  call void (ptr, ...) @_ZN5Yosys3logEPKcz(ptr noundef @.str.9)
  call void (ptr, ...) @_ZN5Yosys3logEPKcz(ptr noundef @.str.3)
  ret void
}